; Function Attrs: mustprogress nofree norecurse nosync nounwind willreturn memory(argmem: readwrite) uwtable
define noundef ptr @_ZN4base14PickleIterator24GetReadPointerAndAdvanceEi(ptr noundef nonnull align 8 captures(none) dereferenceable(24) %0, i32 noundef %1) local_unnamed_addr #3 align 2 {
  %3 = icmp slt i32 %1, 0
  %.phi.trans.insert = getelementptr inbounds nuw i8, ptr %0, i64 16
  %.pre = load i64, ptr %.phi.trans.insert, align 8, !tbaa !22
  br i1 %3, label %._crit_edge, label %4

4:                                                ; preds = %2
  %5 = getelementptr inbounds nuw i8, ptr %0, i64 8
  %6 = load i64, ptr %5, align 8, !tbaa !21
  %7 = sub i64 %.pre, %6
  %8 = zext nneg i32 %1 to i64
  %9 = icmp ult i64 %7, %8
  br i1 %9, label %._crit_edge, label %11

._crit_edge:                                      ; preds = %2, %4
  %10 = getelementptr inbounds nuw i8, ptr %0, i64 8
  store i64 %.pre, ptr %10, align 8, !tbaa !21
  br label %18

11:                                               ; preds = %4
  %12 = load ptr, ptr %0, align 8, !tbaa !18
  %13 = getelementptr inbounds nuw i8, ptr %12, i64 %6
  %14 = add nuw nsw i64 %8, 3
  %15 = and i64 %14, 4294967292
  %16 = icmp ult i64 %7, %15
  %17 = add i64 %6, %15
  %storemerge.i = select i1 %16, i64 %.pre, i64 %17
  store i64 %storemerge.i, ptr %5, align 8, !tbaa !21
  br label %18

18:                                               ; preds = %11, %._crit_edge
  %.0 = phi ptr [ null, %._crit_edge ], [ %13, %11 ]
  ret ptr %.0
}